target datalayout = "e-m:e-p270:32:32-p271:32:32-p272:64:64-i64:64-i128:128-f80:128-n8:16:32:64-S128"
target triple = "x86_64-pc-linux-gnu"

@.str.58 = private unnamed_addr constant [11 x i8] c"0123456789\00", align 1

; Function Attrs: nounwind uwtable
define internal void @add_pax_attr(ptr noundef %0, ptr noundef %1, ptr noundef %2) #0 {
  %4 = alloca ptr, align 8
  %5 = alloca ptr, align 8
  %6 = alloca ptr, align 8
  store ptr %0, ptr %4, align 8
  store ptr %1, ptr %5, align 8
  store ptr %2, ptr %6, align 8
  %7 = load ptr, ptr %4, align 8
  %8 = load ptr, ptr %5, align 8
  %9 = load ptr, ptr %6, align 8
  %10 = load ptr, ptr %6, align 8
  %11 = call i64 @strlen(ptr noundef %10) #9
  call void @add_pax_attr_binary(ptr noundef %7, ptr noundef %8, ptr noundef %9, i64 noundef %11)
  ret void
}

; Function Attrs: nounwind uwtable
define internal ptr @format_int(ptr noundef %0, i64 noundef %1) #0 {
  %3 = alloca ptr, align 8
  %4 = alloca i64, align 8
  %5 = alloca i64, align 8
  store ptr %0, ptr %3, align 8
  store i64 %1, ptr %4, align 8
  %6 = load i64, ptr %4, align 8
  %7 = icmp slt i64 %6, 0
  br i1 %7, label %8, label %17

8:                                                ; preds = %2
  %9 = load i64, ptr %4, align 8
  %10 = icmp eq i64 %9, -9223372036854775808
  br i1 %10, label %11, label %12

11:                                               ; preds = %8
  br label %15

12:                                               ; preds = %8
  %13 = load i64, ptr %4, align 8
  %14 = sub nsw i64 0, %13
  br label %15

15:                                               ; preds = %12, %11
  %16 = phi i64 [ -9223372036854775808, %11 ], [ %14, %12 ]
  store i64 %16, ptr %5, align 8
  br label %19

17:                                               ; preds = %2
  %18 = load i64, ptr %4, align 8
  store i64 %18, ptr %5, align 8
  br label %19

19:                                               ; preds = %17, %15
  br label %20

20:                                               ; preds = %27, %19
  %21 = load i64, ptr %5, align 8
  %22 = urem i64 %21, 10
  %23 = getelementptr inbounds [11 x i8], ptr @.str.58, i64 0, i64 %22
  %24 = load i8, ptr %23, align 1
  %25 = load ptr, ptr %3, align 8
  %26 = getelementptr inbounds i8, ptr %25, i32 -1
  store ptr %26, ptr %3, align 8
  store i8 %24, ptr %26, align 1
  br label %27

27:                                               ; preds = %20
  %28 = load i64, ptr %5, align 8
  %29 = udiv i64 %28, 10
  store i64 %29, ptr %5, align 8
  %30 = icmp ne i64 %29, 0
  br i1 %30, label %20, label %31, !llvm.loop !21

31:                                               ; preds = %27
  %32 = load i64, ptr %4, align 8
  %33 = icmp slt i64 %32, 0
  br i1 %33, label %34, label %37

34:                                               ; preds = %31
  %35 = load ptr, ptr %3, align 8
  %36 = getelementptr inbounds i8, ptr %35, i32 -1
  store ptr %36, ptr %3, align 8
  store i8 45, ptr %36, align 1
  br label %37

37:                                               ; preds = %34, %31
  %38 = load ptr, ptr %3, align 8
  ret ptr %38
}

; Function Attrs: nounwind uwtable
define internal void @add_pax_attr_int(ptr noundef %0, ptr noundef %1, i64 noundef %2) #0 {
  %4 = alloca ptr, align 8
  %5 = alloca ptr, align 8
  %6 = alloca i64, align 8
  %7 = alloca [25 x i8], align 16
  store ptr %0, ptr %4, align 8
  store ptr %1, ptr %5, align 8
  store i64 %2, ptr %6, align 8
  %8 = getelementptr inbounds [25 x i8], ptr %7, i64 0, i64 24
  store i8 0, ptr %8, align 8
  %9 = load ptr, ptr %4, align 8
  %10 = load ptr, ptr %5, align 8
  %11 = getelementptr inbounds [25 x i8], ptr %7, i64 0, i64 0
  %12 = getelementptr inbounds i8, ptr %11, i64 25
  %13 = getelementptr inbounds i8, ptr %12, i64 -1
  %14 = load i64, ptr %6, align 8
  %15 = call ptr @format_int(ptr noundef %13, i64 noundef %14)
  call void @add_pax_attr(ptr noundef %9, ptr noundef %10, ptr noundef %15)
  ret void
}