; Function Attrs: nounwind uwtable
define internal fastcc void @add_pax_attr_int(ptr noundef %0, ptr noundef %1, i64 noundef %2) unnamed_addr #0 {
  %4 = alloca [25 x i8], align 16
  %5 = getelementptr inbounds nuw i8, ptr %4, i64 24
  store i8 0, ptr %5, align 8
  %.0.i = tail call i64 @llvm.abs.i64(i64 %2, i1 false)
  br label %6

6:                                                ; preds = %6, %3
  %.09.i = phi ptr [ %5, %3 ], [ %10, %6 ]
  %.1.i = phi i64 [ %.0.i, %3 ], [ %11, %6 ]
  %7 = urem i64 %.1.i, 10
  %8 = getelementptr inbounds nuw [11 x i8], ptr @.str.58, i64 0, i64 %7
  %9 = load i8, ptr %8, align 1
  %10 = getelementptr inbounds i8, ptr %.09.i, i64 -1
  store i8 %9, ptr %10, align 1
  %11 = udiv i64 %.1.i, 10
  %.not.i = icmp ult i64 %.1.i, 10
  br i1 %.not.i, label %12, label %6, !llvm.loop !17

12:                                               ; preds = %6
  %13 = icmp slt i64 %2, 0
  br i1 %13, label %14, label %format_int.exit

14:                                               ; preds = %12
  %15 = getelementptr inbounds i8, ptr %.09.i, i64 -2
  store i8 45, ptr %15, align 1
  br label %format_int.exit

format_int.exit:                                  ; preds = %12, %14
  %.110.i = phi ptr [ %15, %14 ], [ %10, %12 ]
  %16 = call i64 @strlen(ptr noundef nonnull dereferenceable(1) %.110.i) #17
  call fastcc void @add_pax_attr_binary(ptr noundef %0, ptr noundef %1, ptr noundef nonnull %.110.i, i64 noundef %16)
  ret void
}